target datalayout = "e-m:e-p270:32:32-p271:32:32-p272:64:64-i64:64-i128:128-f80:128-n8:16:32:64-S128"
target triple = "x86_64-pc-linux-gnu"

%struct.ARKodeMemRec = type { ptr, double, ptr, i32, i32, double, double, ptr, i32, double, ptr, i32, i32, ptr, ptr, i32, ptr, ptr, i32, ptr, ptr, ptr, ptr, ptr, ptr, ptr, ptr, ptr, ptr, ptr, ptr, ptr, ptr, ptr, i32, ptr, ptr, i32, ptr, i32, ptr, ptr, ptr, ptr, ptr, ptr, ptr, ptr, ptr, ptr, ptr, ptr, ptr, ptr, ptr, ptr, ptr, ptr, ptr, ptr, ptr, ptr, ptr, ptr, ptr, ptr, i32, ptr, ptr, ptr, ptr, ptr, ptr, ptr, i32, ptr, ptr, ptr, i32, ptr, ptr, ptr, ptr, ptr, ptr, ptr, i32, i32, i32, i32, double, double, double, double, double, double, double, double, double, double, i32, ptr, i64, i32, i32, i32, i32, i64, i64, i32, i64, i64, i64, i64, i64, i64, i64, double, double, double, double, double, i32, double, double, i32, i32, i32, i32, i32, i32, i32, i32, ptr, i32, ptr, ptr, ptr, ptr, i32, i32, i32 }
%struct._generic_SUNLinearSolver = type { ptr, ptr, ptr }
%struct._generic_SUNLinearSolver_Ops = type { ptr, ptr, ptr, ptr, ptr, ptr, ptr, ptr, ptr, ptr, ptr, ptr, ptr, ptr, ptr }
%struct._generic_N_Vector = type { ptr, ptr, ptr }
%struct._generic_N_Vector_Ops = type { ptr, ptr, ptr, ptr, ptr, ptr, ptr, ptr, ptr, ptr, ptr, ptr, ptr, ptr, ptr, ptr, ptr, ptr, ptr, ptr, ptr, ptr, ptr, ptr, ptr, ptr, ptr, ptr, ptr, ptr, ptr, ptr, ptr, ptr, ptr, ptr, ptr, ptr, ptr, ptr, ptr, ptr, ptr, ptr, ptr, ptr, ptr, ptr, ptr, ptr, ptr, ptr, ptr, ptr, ptr, ptr }
%struct._generic_SUNMatrix = type { ptr, ptr, ptr }
%struct._generic_SUNMatrix_Ops = type { ptr, ptr, ptr, ptr, ptr, ptr, ptr, ptr, ptr, ptr }
%struct.ARKLsMassMemRec = type { i32, i32, ptr, ptr, ptr, ptr, double, double, i32, double, i64, i64, i64, i64, i64, i64, i64, i64, i64, ptr, ptr, ptr, ptr, ptr, ptr, ptr, ptr, ptr, ptr, i32 }

@.str = private unnamed_addr constant [118 x i8] c"generated/home/dtcxzyw/WorkSpace/Projects/compilers/llvm-opt-benchmark/bench/sundials/sundials/src/arkode/arkode_ls.c\00", align 1
@.str.1 = private unnamed_addr constant [27 x i8] c"arkode_mem = NULL illegal.\00", align 1
@__func__.ARKodeGetMassWorkSpace = private unnamed_addr constant [23 x i8] c"ARKodeGetMassWorkSpace\00", align 1
@.str.65 = private unnamed_addr constant [35 x i8] c"Mass matrix solver memory is NULL.\00", align 1

; Function Attrs: nounwind uwtable
define i32 @arkLs_AccessMassMem(ptr noundef %0, ptr noundef %1, ptr noundef %2) #0 {
  %4 = alloca i32, align 4
  %5 = alloca ptr, align 8
  %6 = alloca ptr, align 8
  %7 = alloca ptr, align 8
  %8 = alloca ptr, align 8
  %9 = alloca i32, align 4
  store ptr %0, ptr %5, align 8, !tbaa !11
  store ptr %1, ptr %6, align 8, !tbaa !155
  store ptr %2, ptr %7, align 8, !tbaa !159
  call void @llvm.lifetime.start.p0(i64 8, ptr %8) #7
  %10 = load ptr, ptr %5, align 8, !tbaa !11
  %11 = getelementptr inbounds nuw %struct.ARKodeMemRec, ptr %10, i32 0, i32 69
  %12 = load ptr, ptr %11, align 8, !tbaa !97
  %13 = load ptr, ptr %5, align 8, !tbaa !11
  %14 = call ptr %12(ptr noundef %13)
  store ptr %14, ptr %8, align 8, !tbaa !3
  %15 = load ptr, ptr %8, align 8, !tbaa !3
  %16 = icmp eq ptr %15, null
  br i1 %16, label %17, label %20

17:                                               ; preds = %3
  %18 = load ptr, ptr %5, align 8, !tbaa !11
  %19 = load ptr, ptr %6, align 8, !tbaa !155
  call void (ptr, i32, i32, ptr, ptr, ptr, ...) @arkProcessError(ptr noundef %18, i32 noundef -6, i32 noundef 4109, ptr noundef %19, ptr noundef @.str, ptr noundef @.str.65)
  store i32 -6, ptr %4, align 4
  store i32 1, ptr %9, align 4
  br label %23

20:                                               ; preds = %3
  %21 = load ptr, ptr %8, align 8, !tbaa !3
  %22 = load ptr, ptr %7, align 8, !tbaa !159
  store ptr %21, ptr %22, align 8, !tbaa !101
  store i32 0, ptr %4, align 4
  store i32 1, ptr %9, align 4
  br label %23

23:                                               ; preds = %20, %17
  call void @llvm.lifetime.end.p0(i64 8, ptr %8) #7
  %24 = load i32, ptr %4, align 4
  ret i32 %24
}

; Function Attrs: nounwind uwtable
define i32 @ARKodeGetMassWorkSpace(ptr noundef %0, ptr noundef %1, ptr noundef %2) #0 {
  %4 = alloca i32, align 4
  %5 = alloca ptr, align 8
  %6 = alloca ptr, align 8
  %7 = alloca ptr, align 8
  %8 = alloca ptr, align 8
  %9 = alloca ptr, align 8
  %10 = alloca i64, align 8
  %11 = alloca i64, align 8
  %12 = alloca i64, align 8
  %13 = alloca i64, align 8
  %14 = alloca i32, align 4
  %15 = alloca i32, align 4
  store ptr %0, ptr %5, align 8, !tbaa !3
  store ptr %1, ptr %6, align 8, !tbaa !165
  store ptr %2, ptr %7, align 8, !tbaa !165
  call void @llvm.lifetime.start.p0(i64 8, ptr %8) #7
  call void @llvm.lifetime.start.p0(i64 8, ptr %9) #7
  call void @llvm.lifetime.start.p0(i64 8, ptr %10) #7
  call void @llvm.lifetime.start.p0(i64 8, ptr %11) #7
  call void @llvm.lifetime.start.p0(i64 8, ptr %12) #7
  call void @llvm.lifetime.start.p0(i64 8, ptr %13) #7
  call void @llvm.lifetime.start.p0(i64 4, ptr %14) #7
  %16 = load ptr, ptr %5, align 8, !tbaa !3
  %17 = icmp eq ptr %16, null
  br i1 %17, label %18, label %19

18:                                               ; preds = %3
  call void (ptr, i32, i32, ptr, ptr, ptr, ...) @arkProcessError(ptr noundef null, i32 noundef -21, i32 noundef 1834, ptr noundef @__func__.ARKodeGetMassWorkSpace, ptr noundef @.str, ptr noundef @.str.1)
  store i32 -21, ptr %4, align 4
  store i32 1, ptr %15, align 4
  br label %122

19:                                               ; preds = %3
  %20 = load ptr, ptr %5, align 8, !tbaa !3
  store ptr %20, ptr %8, align 8, !tbaa !11
  %21 = load ptr, ptr %8, align 8, !tbaa !11
  %22 = getelementptr inbounds nuw %struct.ARKodeMemRec, ptr %21, i32 0, i32 66
  %23 = load i32, ptr %22, align 8, !tbaa !120
  %24 = icmp ne i32 %23, 0
  br i1 %24, label %28, label %25

25:                                               ; preds = %19
  %26 = load ptr, ptr %7, align 8, !tbaa !165
  store i64 0, ptr %26, align 8, !tbaa !117
  %27 = load ptr, ptr %6, align 8, !tbaa !165
  store i64 0, ptr %27, align 8, !tbaa !117
  store i32 0, ptr %4, align 4
  store i32 1, ptr %15, align 4
  br label %122

28:                                               ; preds = %19
  %29 = load ptr, ptr %8, align 8, !tbaa !11
  %30 = call i32 @arkLs_AccessMassMem(ptr noundef %29, ptr noundef @__func__.ARKodeGetMassWorkSpace, ptr noundef %9)
  store i32 %30, ptr %14, align 4, !tbaa !30
  %31 = load i32, ptr %14, align 4, !tbaa !30
  %32 = icmp ne i32 %31, 0
  br i1 %32, label %33, label %35

33:                                               ; preds = %28
  %34 = load i32, ptr %14, align 4, !tbaa !30
  store i32 %34, ptr %4, align 4
  store i32 1, ptr %15, align 4
  br label %122

35:                                               ; preds = %28
  %36 = load ptr, ptr %6, align 8, !tbaa !165
  store i64 2, ptr %36, align 8, !tbaa !117
  %37 = load ptr, ptr %7, align 8, !tbaa !165
  store i64 23, ptr %37, align 8, !tbaa !117
  %38 = load ptr, ptr %8, align 8, !tbaa !11
  %39 = getelementptr inbounds nuw %struct.ARKodeMemRec, ptr %38, i32 0, i32 79
  %40 = load ptr, ptr %39, align 8, !tbaa !31
  %41 = getelementptr inbounds nuw %struct._generic_N_Vector, ptr %40, i32 0, i32 1
  %42 = load ptr, ptr %41, align 8, !tbaa !32
  %43 = getelementptr inbounds nuw %struct._generic_N_Vector_Ops, ptr %42, i32 0, i32 4
  %44 = load ptr, ptr %43, align 8, !tbaa !167
  %45 = icmp ne ptr %44, null
  br i1 %45, label %46, label %58

46:                                               ; preds = %35
  %47 = load ptr, ptr %8, align 8, !tbaa !11
  %48 = getelementptr inbounds nuw %struct.ARKodeMemRec, ptr %47, i32 0, i32 79
  %49 = load ptr, ptr %48, align 8, !tbaa !31
  call void @N_VSpace(ptr noundef %49, ptr noundef %10, ptr noundef %11)
  %50 = load i64, ptr %10, align 8, !tbaa !117
  %51 = load ptr, ptr %6, align 8, !tbaa !165
  %52 = load i64, ptr %51, align 8, !tbaa !117
  %53 = add nsw i64 %52, %50
  store i64 %53, ptr %51, align 8, !tbaa !117
  %54 = load i64, ptr %11, align 8, !tbaa !117
  %55 = load ptr, ptr %7, align 8, !tbaa !165
  %56 = load i64, ptr %55, align 8, !tbaa !117
  %57 = add nsw i64 %56, %54
  store i64 %57, ptr %55, align 8, !tbaa !117
  br label %58

58:                                               ; preds = %46, %35
  %59 = load ptr, ptr %9, align 8, !tbaa !101
  %60 = getelementptr inbounds nuw %struct.ARKLsMassMemRec, ptr %59, i32 0, i32 0
  %61 = load i32, ptr %60, align 8, !tbaa !122
  %62 = icmp ne i32 %61, 0
  br i1 %62, label %95, label %63

63:                                               ; preds = %58
  %64 = load ptr, ptr %9, align 8, !tbaa !101
  %65 = getelementptr inbounds nuw %struct.ARKLsMassMemRec, ptr %64, i32 0, i32 4
  %66 = load ptr, ptr %65, align 8, !tbaa !136
  %67 = icmp ne ptr %66, null
  br i1 %67, label %68, label %95

68:                                               ; preds = %63
  %69 = load ptr, ptr %9, align 8, !tbaa !101
  %70 = getelementptr inbounds nuw %struct.ARKLsMassMemRec, ptr %69, i32 0, i32 4
  %71 = load ptr, ptr %70, align 8, !tbaa !136
  %72 = getelementptr inbounds nuw %struct._generic_SUNMatrix, ptr %71, i32 0, i32 1
  %73 = load ptr, ptr %72, align 8, !tbaa !103
  %74 = getelementptr inbounds nuw %struct._generic_SUNMatrix_Ops, ptr %73, i32 0, i32 9
  %75 = load ptr, ptr %74, align 8, !tbaa !168
  %76 = icmp ne ptr %75, null
  br i1 %76, label %77, label %94

77:                                               ; preds = %68
  %78 = load ptr, ptr %9, align 8, !tbaa !101
  %79 = getelementptr inbounds nuw %struct.ARKLsMassMemRec, ptr %78, i32 0, i32 4
  %80 = load ptr, ptr %79, align 8, !tbaa !136
  %81 = call i32 @SUNMatSpace(ptr noundef %80, ptr noundef %12, ptr noundef %13)
  store i32 %81, ptr %14, align 4, !tbaa !30
  %82 = load i32, ptr %14, align 4, !tbaa !30
  %83 = icmp eq i32 %82, 0
  br i1 %83, label %84, label %93

84:                                               ; preds = %77
  %85 = load i64, ptr %12, align 8, !tbaa !117
  %86 = load ptr, ptr %6, align 8, !tbaa !165
  %87 = load i64, ptr %86, align 8, !tbaa !117
  %88 = add nsw i64 %87, %85
  store i64 %88, ptr %86, align 8, !tbaa !117
  %89 = load i64, ptr %13, align 8, !tbaa !117
  %90 = load ptr, ptr %7, align 8, !tbaa !165
  %91 = load i64, ptr %90, align 8, !tbaa !117
  %92 = add nsw i64 %91, %89
  store i64 %92, ptr %90, align 8, !tbaa !117
  br label %93

93:                                               ; preds = %84, %77
  br label %94

94:                                               ; preds = %93, %68
  br label %95

95:                                               ; preds = %94, %63, %58
  %96 = load ptr, ptr %9, align 8, !tbaa !101
  %97 = getelementptr inbounds nuw %struct.ARKLsMassMemRec, ptr %96, i32 0, i32 19
  %98 = load ptr, ptr %97, align 8, !tbaa !110
  %99 = getelementptr inbounds nuw %struct._generic_SUNLinearSolver, ptr %98, i32 0, i32 1
  %100 = load ptr, ptr %99, align 8, !tbaa !24
  %101 = getelementptr inbounds nuw %struct._generic_SUNLinearSolver_Ops, ptr %100, i32 0, i32 12
  %102 = load ptr, ptr %101, align 8, !tbaa !169
  %103 = icmp ne ptr %102, null
  br i1 %103, label %104, label %121

104:                                              ; preds = %95
  %105 = load ptr, ptr %9, align 8, !tbaa !101
  %106 = getelementptr inbounds nuw %struct.ARKLsMassMemRec, ptr %105, i32 0, i32 19
  %107 = load ptr, ptr %106, align 8, !tbaa !110
  %108 = call i32 @SUNLinSolSpace(ptr noundef %107, ptr noundef %12, ptr noundef %13)
  store i32 %108, ptr %14, align 4, !tbaa !30
  %109 = load i32, ptr %14, align 4, !tbaa !30
  %110 = icmp eq i32 %109, 0
  br i1 %110, label %111, label %120

111:                                              ; preds = %104
  %112 = load i64, ptr %12, align 8, !tbaa !117
  %113 = load ptr, ptr %6, align 8, !tbaa !165
  %114 = load i64, ptr %113, align 8, !tbaa !117
  %115 = add nsw i64 %114, %112
  store i64 %115, ptr %113, align 8, !tbaa !117
  %116 = load i64, ptr %13, align 8, !tbaa !117
  %117 = load ptr, ptr %7, align 8, !tbaa !165
  %118 = load i64, ptr %117, align 8, !tbaa !117
  %119 = add nsw i64 %118, %116
  store i64 %119, ptr %117, align 8, !tbaa !117
  br label %120

120:                                              ; preds = %111, %104
  br label %121

121:                                              ; preds = %120, %95
  store i32 0, ptr %4, align 4
  store i32 1, ptr %15, align 4
  br label %122

122:                                              ; preds = %121, %33, %25, %18
  call void @llvm.lifetime.end.p0(i64 4, ptr %14) #7
  call void @llvm.lifetime.end.p0(i64 8, ptr %13) #7
  call void @llvm.lifetime.end.p0(i64 8, ptr %12) #7
  call void @llvm.lifetime.end.p0(i64 8, ptr %11) #7
  call void @llvm.lifetime.end.p0(i64 8, ptr %10) #7
  call void @llvm.lifetime.end.p0(i64 8, ptr %9) #7
  call void @llvm.lifetime.end.p0(i64 8, ptr %8) #7
  %123 = load i32, ptr %4, align 4
  ret i32 %123
}