; Function Attrs: nounwind uwtable
define range(i32 -21, 1) i32 @ARKodeGetMassWorkSpace(ptr noundef %0, ptr noundef captures(none) %1, ptr noundef captures(none) %2) local_unnamed_addr #0 {
  %4 = alloca i64, align 8
  %5 = alloca i64, align 8
  %6 = alloca i64, align 8
  %7 = alloca i64, align 8
  call void @llvm.lifetime.start.p0(i64 8, ptr nonnull %4) #13
  call void @llvm.lifetime.start.p0(i64 8, ptr nonnull %5) #13
  call void @llvm.lifetime.start.p0(i64 8, ptr nonnull %6) #13
  call void @llvm.lifetime.start.p0(i64 8, ptr nonnull %7) #13
  %8 = icmp eq ptr %0, null
  br i1 %8, label %9, label %10

9:                                                ; preds = %3
  tail call void (ptr, i32, i32, ptr, ptr, ptr, ...) @arkProcessError(ptr noundef null, i32 noundef -21, i32 noundef 1834, ptr noundef nonnull @__func__.ARKodeGetMassWorkSpace, ptr noundef nonnull @.str, ptr noundef nonnull @.str.1) #13
  br label %70

10:                                               ; preds = %3
  %11 = getelementptr inbounds nuw i8, ptr %0, i64 512
  %12 = load i32, ptr %11, align 8, !tbaa !105
  %.not = icmp eq i32 %12, 0
  br i1 %.not, label %13, label %14

13:                                               ; preds = %10
  store i64 0, ptr %2, align 8, !tbaa !146
  store i64 0, ptr %1, align 8, !tbaa !146
  br label %70

14:                                               ; preds = %10
  %15 = getelementptr inbounds nuw i8, ptr %0, i64 536
  %16 = load ptr, ptr %15, align 8, !tbaa !75
  %17 = tail call ptr %16(ptr noundef nonnull %0) #13
  %18 = icmp eq ptr %17, null
  br i1 %18, label %arkLs_AccessMassMem.exit, label %19

arkLs_AccessMassMem.exit:                         ; preds = %14
  tail call void (ptr, i32, i32, ptr, ptr, ptr, ...) @arkProcessError(ptr noundef nonnull %0, i32 noundef -6, i32 noundef 4109, ptr noundef nonnull @__func__.ARKodeGetMassWorkSpace, ptr noundef nonnull @.str, ptr noundef nonnull @.str.65) #13
  br label %70

19:                                               ; preds = %14
  store i64 2, ptr %1, align 8, !tbaa !146
  store i64 23, ptr %2, align 8, !tbaa !146
  %20 = getelementptr inbounds nuw i8, ptr %0, i64 616
  %21 = load ptr, ptr %20, align 8, !tbaa !23
  %22 = getelementptr inbounds nuw i8, ptr %21, i64 8
  %23 = load ptr, ptr %22, align 8, !tbaa !24
  %24 = getelementptr inbounds nuw i8, ptr %23, i64 32
  %25 = load ptr, ptr %24, align 8, !tbaa !147
  %.not24 = icmp eq ptr %25, null
  br i1 %.not24, label %33, label %26

26:                                               ; preds = %19
  call void @N_VSpace(ptr noundef nonnull %21, ptr noundef nonnull %4, ptr noundef nonnull %5) #13
  %27 = load i64, ptr %4, align 8, !tbaa !146
  %28 = load i64, ptr %1, align 8, !tbaa !146
  %29 = add nsw i64 %28, %27
  store i64 %29, ptr %1, align 8, !tbaa !146
  %30 = load i64, ptr %5, align 8, !tbaa !146
  %31 = load i64, ptr %2, align 8, !tbaa !146
  %32 = add nsw i64 %31, %30
  store i64 %32, ptr %2, align 8, !tbaa !146
  br label %33

33:                                               ; preds = %26, %19
  %34 = load i32, ptr %17, align 8, !tbaa !107
  %.not25 = icmp eq i32 %34, 0
  br i1 %.not25, label %35, label %53

35:                                               ; preds = %33
  %36 = getelementptr inbounds nuw i8, ptr %17, i64 24
  %37 = load ptr, ptr %36, align 8, !tbaa !113
  %.not26 = icmp eq ptr %37, null
  br i1 %.not26, label %53, label %38

38:                                               ; preds = %35
  %39 = getelementptr inbounds nuw i8, ptr %37, i64 8
  %40 = load ptr, ptr %39, align 8, !tbaa !81
  %41 = getelementptr inbounds nuw i8, ptr %40, i64 72
  %42 = load ptr, ptr %41, align 8, !tbaa !148
  %.not27 = icmp eq ptr %42, null
  br i1 %.not27, label %53, label %43

43:                                               ; preds = %38
  %44 = call i32 @SUNMatSpace(ptr noundef nonnull %37, ptr noundef nonnull %6, ptr noundef nonnull %7) #13
  %45 = icmp eq i32 %44, 0
  br i1 %45, label %46, label %53

46:                                               ; preds = %43
  %47 = load i64, ptr %6, align 8, !tbaa !146
  %48 = load i64, ptr %1, align 8, !tbaa !146
  %49 = add nsw i64 %48, %47
  store i64 %49, ptr %1, align 8, !tbaa !146
  %50 = load i64, ptr %7, align 8, !tbaa !146
  %51 = load i64, ptr %2, align 8, !tbaa !146
  %52 = add nsw i64 %51, %50
  store i64 %52, ptr %2, align 8, !tbaa !146
  br label %53

53:                                               ; preds = %38, %46, %43, %35, %33
  %54 = getelementptr inbounds nuw i8, ptr %17, i64 144
  %55 = load ptr, ptr %54, align 8, !tbaa !88
  %56 = getelementptr inbounds nuw i8, ptr %55, i64 8
  %57 = load ptr, ptr %56, align 8, !tbaa !17
  %58 = getelementptr inbounds nuw i8, ptr %57, i64 96
  %59 = load ptr, ptr %58, align 8, !tbaa !149
  %.not28 = icmp eq ptr %59, null
  br i1 %.not28, label %70, label %60

60:                                               ; preds = %53
  %61 = call i32 @SUNLinSolSpace(ptr noundef nonnull %55, ptr noundef nonnull %6, ptr noundef nonnull %7) #13
  %62 = icmp eq i32 %61, 0
  br i1 %62, label %63, label %70

63:                                               ; preds = %60
  %64 = load i64, ptr %6, align 8, !tbaa !146
  %65 = load i64, ptr %1, align 8, !tbaa !146
  %66 = add nsw i64 %65, %64
  store i64 %66, ptr %1, align 8, !tbaa !146
  %67 = load i64, ptr %7, align 8, !tbaa !146
  %68 = load i64, ptr %2, align 8, !tbaa !146
  %69 = add nsw i64 %68, %67
  store i64 %69, ptr %2, align 8, !tbaa !146
  br label %70

70:                                               ; preds = %arkLs_AccessMassMem.exit, %53, %63, %60, %13, %9
  %.0 = phi i32 [ -21, %9 ], [ 0, %13 ], [ -6, %arkLs_AccessMassMem.exit ], [ 0, %60 ], [ 0, %63 ], [ 0, %53 ]
  call void @llvm.lifetime.end.p0(i64 8, ptr nonnull %7) #13
  call void @llvm.lifetime.end.p0(i64 8, ptr nonnull %6) #13
  call void @llvm.lifetime.end.p0(i64 8, ptr nonnull %5) #13
  call void @llvm.lifetime.end.p0(i64 8, ptr nonnull %4) #13
  ret i32 %.0
}